
serial_gen:     file format elf64-x86-64


Disassembly of section .init:

0000000000001000 <_init>:
    1000:	f3 0f 1e fa          	endbr64 
    1004:	48 83 ec 08          	sub    $0x8,%rsp
    1008:	48 8b 05 d9 2f 00 00 	mov    0x2fd9(%rip),%rax        # 3fe8 <__gmon_start__>
    100f:	48 85 c0             	test   %rax,%rax
    1012:	74 02                	je     1016 <_init+0x16>
    1014:	ff d0                	callq  *%rax
    1016:	48 83 c4 08          	add    $0x8,%rsp
    101a:	c3                   	retq   

Disassembly of section .plt:

0000000000001020 <.plt>:
    1020:	ff 35 e2 2f 00 00    	pushq  0x2fe2(%rip)        # 4008 <_GLOBAL_OFFSET_TABLE_+0x8>
    1026:	ff 25 e4 2f 00 00    	jmpq   *0x2fe4(%rip)        # 4010 <_GLOBAL_OFFSET_TABLE_+0x10>
    102c:	0f 1f 40 00          	nopl   0x0(%rax)

0000000000001030 <puts@plt>:
    1030:	ff 25 e2 2f 00 00    	jmpq   *0x2fe2(%rip)        # 4018 <puts@GLIBC_2.2.5>
    1036:	68 00 00 00 00       	pushq  $0x0
    103b:	e9 e0 ff ff ff       	jmpq   1020 <.plt>

0000000000001040 <strlen@plt>:
    1040:	ff 25 da 2f 00 00    	jmpq   *0x2fda(%rip)        # 4020 <strlen@GLIBC_2.2.5>
    1046:	68 01 00 00 00       	pushq  $0x1
    104b:	e9 d0 ff ff ff       	jmpq   1020 <.plt>

0000000000001050 <printf@plt>:
    1050:	ff 25 d2 2f 00 00    	jmpq   *0x2fd2(%rip)        # 4028 <printf@GLIBC_2.2.5>
    1056:	68 02 00 00 00       	pushq  $0x2
    105b:	e9 c0 ff ff ff       	jmpq   1020 <.plt>

0000000000001060 <exit@plt>:
    1060:	ff 25 ca 2f 00 00    	jmpq   *0x2fca(%rip)        # 4030 <exit@GLIBC_2.2.5>
    1066:	68 03 00 00 00       	pushq  $0x3
    106b:	e9 b0 ff ff ff       	jmpq   1020 <.plt>

Disassembly of section .text:

0000000000001070 <_start>:
    1070:	f3 0f 1e fa          	endbr64 
    1074:	31 ed                	xor    %ebp,%ebp
    1076:	49 89 d1             	mov    %rdx,%r9
    1079:	5e                   	pop    %rsi
    107a:	48 89 e2             	mov    %rsp,%rdx
    107d:	48 83 e4 f0          	and    $0xfffffffffffffff0,%rsp
    1081:	50                   	push   %rax
    1082:	54                   	push   %rsp
    1083:	4c 8d 05 76 02 00 00 	lea    0x276(%rip),%r8        # 1300 <__libc_csu_fini>
    108a:	48 8d 0d ff 01 00 00 	lea    0x1ff(%rip),%rcx        # 1290 <__libc_csu_init>
    1091:	48 8d 3d 8e 01 00 00 	lea    0x18e(%rip),%rdi        # 1226 <main>
    1098:	ff 15 42 2f 00 00    	callq  *0x2f42(%rip)        # 3fe0 <__libc_start_main@GLIBC_2.2.5>
    109e:	f4                   	hlt    
    109f:	90                   	nop

00000000000010a0 <deregister_tm_clones>:
    10a0:	48 8d 3d a1 2f 00 00 	lea    0x2fa1(%rip),%rdi        # 4048 <__TMC_END__>
    10a7:	48 8d 05 9a 2f 00 00 	lea    0x2f9a(%rip),%rax        # 4048 <__TMC_END__>
    10ae:	48 39 f8             	cmp    %rdi,%rax
    10b1:	74 15                	je     10c8 <deregister_tm_clones+0x28>
    10b3:	48 8b 05 1e 2f 00 00 	mov    0x2f1e(%rip),%rax        # 3fd8 <_ITM_deregisterTMCloneTable>
    10ba:	48 85 c0             	test   %rax,%rax
    10bd:	74 09                	je     10c8 <deregister_tm_clones+0x28>
    10bf:	ff e0                	jmpq   *%rax
    10c1:	0f 1f 80 00 00 00 00 	nopl   0x0(%rax)
    10c8:	c3                   	retq   
    10c9:	0f 1f 80 00 00 00 00 	nopl   0x0(%rax)

00000000000010d0 <register_tm_clones>:
    10d0:	48 8d 3d 71 2f 00 00 	lea    0x2f71(%rip),%rdi        # 4048 <__TMC_END__>
    10d7:	48 8d 35 6a 2f 00 00 	lea    0x2f6a(%rip),%rsi        # 4048 <__TMC_END__>
    10de:	48 29 fe             	sub    %rdi,%rsi
    10e1:	48 c1 fe 03          	sar    $0x3,%rsi
    10e5:	48 89 f0             	mov    %rsi,%rax
    10e8:	48 c1 e8 3f          	shr    $0x3f,%rax
    10ec:	48 01 c6             	add    %rax,%rsi
    10ef:	48 d1 fe             	sar    %rsi
    10f2:	74 14                	je     1108 <register_tm_clones+0x38>
    10f4:	48 8b 05 f5 2e 00 00 	mov    0x2ef5(%rip),%rax        # 3ff0 <_ITM_registerTMCloneTable>
    10fb:	48 85 c0             	test   %rax,%rax
    10fe:	74 08                	je     1108 <register_tm_clones+0x38>
    1100:	ff e0                	jmpq   *%rax
    1102:	66 0f 1f 44 00 00    	nopw   0x0(%rax,%rax,1)
    1108:	c3                   	retq   
    1109:	0f 1f 80 00 00 00 00 	nopl   0x0(%rax)

0000000000001110 <__do_global_dtors_aux>:
    1110:	f3 0f 1e fa          	endbr64 
    1114:	80 3d 2d 2f 00 00 00 	cmpb   $0x0,0x2f2d(%rip)        # 4048 <__TMC_END__>
    111b:	75 33                	jne    1150 <__do_global_dtors_aux+0x40>
    111d:	55                   	push   %rbp
    111e:	48 83 3d d2 2e 00 00 	cmpq   $0x0,0x2ed2(%rip)        # 3ff8 <__cxa_finalize@GLIBC_2.2.5>
    1125:	00 
    1126:	48 89 e5             	mov    %rsp,%rbp
    1129:	74 0d                	je     1138 <__do_global_dtors_aux+0x28>
    112b:	48 8b 3d 0e 2f 00 00 	mov    0x2f0e(%rip),%rdi        # 4040 <__dso_handle>
    1132:	ff 15 c0 2e 00 00    	callq  *0x2ec0(%rip)        # 3ff8 <__cxa_finalize@GLIBC_2.2.5>
    1138:	e8 63 ff ff ff       	callq  10a0 <deregister_tm_clones>
    113d:	c6 05 04 2f 00 00 01 	movb   $0x1,0x2f04(%rip)        # 4048 <__TMC_END__>
    1144:	5d                   	pop    %rbp
    1145:	c3                   	retq   
    1146:	66 2e 0f 1f 84 00 00 	nopw   %cs:0x0(%rax,%rax,1)
    114d:	00 00 00 
    1150:	c3                   	retq   
    1151:	66 66 2e 0f 1f 84 00 	data16 nopw %cs:0x0(%rax,%rax,1)
    1158:	00 00 00 00 
    115c:	0f 1f 40 00          	nopl   0x0(%rax)

0000000000001160 <frame_dummy>:
    1160:	f3 0f 1e fa          	endbr64 
    1164:	e9 67 ff ff ff       	jmpq   10d0 <register_tm_clones>

0000000000001169 <usage>:
    1169:	55                   	push   %rbp
    116a:	48 89 e5             	mov    %rsp,%rbp
    116d:	48 83 ec 10          	sub    $0x10,%rsp
    1171:	48 89 7d f8          	mov    %rdi,-0x8(%rbp)
    1175:	48 8b 45 f8          	mov    -0x8(%rbp),%rax
    1179:	48 89 c6             	mov    %rax,%rsi
    117c:	48 8d 3d 81 0e 00 00 	lea    0xe81(%rip),%rdi        # 2004 <_IO_stdin_used+0x4>
    1183:	b8 00 00 00 00       	mov    $0x0,%eax
    1188:	e8 c3 fe ff ff       	callq  1050 <printf@plt>
    118d:	bf ff ff ff ff       	mov    $0xffffffff,%edi
    1192:	e8 c9 fe ff ff       	callq  1060 <exit@plt>

0000000000001197 <checkSerial>:
    1197:	55                   	push   %rbp
    1198:	48 89 e5             	mov    %rsp,%rbp
    119b:	53                   	push   %rbx
    119c:	48 83 ec 28          	sub    $0x28,%rsp
    11a0:	48 89 7d d8          	mov    %rdi,-0x28(%rbp)
    11a4:	48 8b 45 d8          	mov    -0x28(%rbp),%rax
    11a8:	48 89 c7             	mov    %rax,%rdi
    11ab:	e8 90 fe ff ff       	callq  1040 <strlen@plt>
    11b0:	48 83 f8 10          	cmp    $0x10,%rax
    11b4:	74 07                	je     11bd <checkSerial+0x26>
    11b6:	b8 ff ff ff ff       	mov    $0xffffffff,%eax
    11bb:	eb 62                	jmp    121f <checkSerial+0x88>
    11bd:	c7 45 ec 00 00 00 00 	movl   $0x0,-0x14(%rbp)
    11c4:	eb 3d                	jmp    1203 <checkSerial+0x6c>
    11c6:	8b 45 ec             	mov    -0x14(%rbp),%eax
    11c9:	48 63 d0             	movslq %eax,%rdx
    11cc:	48 8b 45 d8          	mov    -0x28(%rbp),%rax
    11d0:	48 01 d0             	add    %rdx,%rax
    11d3:	0f b6 00             	movzbl (%rax),%eax
    11d6:	0f be d0             	movsbl %al,%edx
    11d9:	8b 45 ec             	mov    -0x14(%rbp),%eax
    11dc:	48 98                	cltq   
    11de:	48 8d 48 01          	lea    0x1(%rax),%rcx
    11e2:	48 8b 45 d8          	mov    -0x28(%rbp),%rax
    11e6:	48 01 c8             	add    %rcx,%rax
    11e9:	0f b6 00             	movzbl (%rax),%eax
    11ec:	0f be c0             	movsbl %al,%eax
    11ef:	29 c2                	sub    %eax,%edx
    11f1:	89 d0                	mov    %edx,%eax
    11f3:	83 f8 ff             	cmp    $0xffffffff,%eax
    11f6:	74 07                	je     11ff <checkSerial+0x68>
    11f8:	b8 ff ff ff ff       	mov    $0xffffffff,%eax
    11fd:	eb 20                	jmp    121f <checkSerial+0x88>
    11ff:	83 45 ec 02          	addl   $0x2,-0x14(%rbp)
    1203:	8b 45 ec             	mov    -0x14(%rbp),%eax
    1206:	48 63 d8             	movslq %eax,%rbx
    1209:	48 8b 45 d8          	mov    -0x28(%rbp),%rax
    120d:	48 89 c7             	mov    %rax,%rdi
    1210:	e8 2b fe ff ff       	callq  1040 <strlen@plt>
    1215:	48 39 c3             	cmp    %rax,%rbx
    1218:	72 ac                	jb     11c6 <checkSerial+0x2f>
    121a:	b8 00 00 00 00       	mov    $0x0,%eax
    121f:	48 83 c4 28          	add    $0x28,%rsp
    1223:	5b                   	pop    %rbx
    1224:	5d                   	pop    %rbp
    1225:	c3                   	retq   

0000000000001226 <main>:
    1226:	55                   	push   %rbp
    1227:	48 89 e5             	mov    %rsp,%rbp
    122a:	48 83 ec 10          	sub    $0x10,%rsp
    122e:	89 7d fc             	mov    %edi,-0x4(%rbp)
    1231:	48 89 75 f0          	mov    %rsi,-0x10(%rbp)
    1235:	83 7d fc 02          	cmpl   $0x2,-0x4(%rbp)
    1239:	74 0f                	je     124a <main+0x24>
    123b:	48 8b 45 f0          	mov    -0x10(%rbp),%rax
    123f:	48 8b 00             	mov    (%rax),%rax
    1242:	48 89 c7             	mov    %rax,%rdi
    1245:	e8 1f ff ff ff       	callq  1169 <usage>
    124a:	48 8b 45 f0          	mov    -0x10(%rbp),%rax
    124e:	48 83 c0 08          	add    $0x8,%rax
    1252:	48 8b 00             	mov    (%rax),%rax
    1255:	48 89 c7             	mov    %rax,%rdi
    1258:	e8 3a ff ff ff       	callq  1197 <checkSerial>
    125d:	85 c0                	test   %eax,%eax
    125f:	75 13                	jne    1274 <main+0x4e>
    1261:	48 8d 3d a9 0d 00 00 	lea    0xda9(%rip),%rdi        # 2011 <_IO_stdin_used+0x11>
    1268:	e8 c3 fd ff ff       	callq  1030 <puts@plt>
    126d:	b8 00 00 00 00       	mov    $0x0,%eax
    1272:	eb 11                	jmp    1285 <main+0x5f>
    1274:	48 8d 3d a2 0d 00 00 	lea    0xda2(%rip),%rdi        # 201d <_IO_stdin_used+0x1d>
    127b:	e8 b0 fd ff ff       	callq  1030 <puts@plt>
    1280:	b8 ff ff ff ff       	mov    $0xffffffff,%eax
    1285:	c9                   	leaveq 
    1286:	c3                   	retq   
    1287:	66 0f 1f 84 00 00 00 	nopw   0x0(%rax,%rax,1)
    128e:	00 00 

0000000000001290 <__libc_csu_init>:
    1290:	f3 0f 1e fa          	endbr64 
    1294:	41 57                	push   %r15
    1296:	49 89 d7             	mov    %rdx,%r15
    1299:	41 56                	push   %r14
    129b:	49 89 f6             	mov    %rsi,%r14
    129e:	41 55                	push   %r13
    12a0:	41 89 fd             	mov    %edi,%r13d
    12a3:	41 54                	push   %r12
    12a5:	4c 8d 25 3c 2b 00 00 	lea    0x2b3c(%rip),%r12        # 3de8 <__frame_dummy_init_array_entry>
    12ac:	55                   	push   %rbp
    12ad:	48 8d 2d 3c 2b 00 00 	lea    0x2b3c(%rip),%rbp        # 3df0 <__do_global_dtors_aux_fini_array_entry>
    12b4:	53                   	push   %rbx
    12b5:	4c 29 e5             	sub    %r12,%rbp
    12b8:	48 83 ec 08          	sub    $0x8,%rsp
    12bc:	67 e8 3e fd ff ff    	addr32 callq 1000 <_init>
    12c2:	48 c1 fd 03          	sar    $0x3,%rbp
    12c6:	74 1e                	je     12e6 <__libc_csu_init+0x56>
    12c8:	31 db                	xor    %ebx,%ebx
    12ca:	66 0f 1f 44 00 00    	nopw   0x0(%rax,%rax,1)
    12d0:	4c 89 fa             	mov    %r15,%rdx
    12d3:	4c 89 f6             	mov    %r14,%rsi
    12d6:	44 89 ef             	mov    %r13d,%edi
    12d9:	41 ff 14 dc          	callq  *(%r12,%rbx,8)
    12dd:	48 83 c3 01          	add    $0x1,%rbx
    12e1:	48 39 dd             	cmp    %rbx,%rbp
    12e4:	75 ea                	jne    12d0 <__libc_csu_init+0x40>
    12e6:	48 83 c4 08          	add    $0x8,%rsp
    12ea:	5b                   	pop    %rbx
    12eb:	5d                   	pop    %rbp
    12ec:	41 5c                	pop    %r12
    12ee:	41 5d                	pop    %r13
    12f0:	41 5e                	pop    %r14
    12f2:	41 5f                	pop    %r15
    12f4:	c3                   	retq   
    12f5:	66 66 2e 0f 1f 84 00 	data16 nopw %cs:0x0(%rax,%rax,1)
    12fc:	00 00 00 00 

0000000000001300 <__libc_csu_fini>:
    1300:	f3 0f 1e fa          	endbr64 
    1304:	c3                   	retq   

Disassembly of section .fini:

0000000000001308 <_fini>:
    1308:	f3 0f 1e fa          	endbr64 
    130c:	48 83 ec 08          	sub    $0x8,%rsp
    1310:	48 83 c4 08          	add    $0x8,%rsp
    1314:	c3                   	retq   
